; Function Attrs: mustprogress nounwind uwtable
define hidden void @_ZN15G1CollectionSetD2Ev(ptr noundef nonnull align 8 dereferenceable(160) %0) unnamed_addr #1 align 2 {
  %2 = getelementptr inbounds i8, ptr %0, i64 88
  %3 = load ptr, ptr %2, align 8
  tail call void @_Z8FreeHeapPv(ptr noundef %3) #15
  %4 = getelementptr inbounds i8, ptr %0, i64 16
  tail call void @_ZN25G1CollectionSetCandidates5clearEv(ptr noundef nonnull align 8 dereferenceable(72) %4) #15
  %5 = getelementptr inbounds i8, ptr %0, i64 112
  store i32 0, ptr %5, align 8
  %6 = getelementptr inbounds i8, ptr %0, i64 120
  tail call void @_ZN31G1CollectionCandidateRegionList5clearEv(ptr noundef nonnull align 8 dereferenceable(24) %6) #15
  %7 = getelementptr inbounds i8, ptr %0, i64 136
  %8 = load i64, ptr %7, align 8
  %9 = and i64 %8, 1
  %.not.i.i = icmp eq i64 %9, 0
  br i1 %.not.i.i, label %_ZN31G1CollectionCandidateRegionListD2Ev.exit, label %10

10:                                               ; preds = %1
  store i32 0, ptr %6, align 8
  tail call void @_ZN26GrowableArrayWithAllocatorIP12G1HeapRegion13GrowableArrayIS1_EE13shrink_to_fitEv(ptr noundef nonnull align 8 dereferenceable(16) %6)
  br label %_ZN31G1CollectionCandidateRegionListD2Ev.exit

_ZN31G1CollectionCandidateRegionListD2Ev.exit:    ; preds = %1, %10
  tail call void @_ZN25G1CollectionSetCandidatesD1Ev(ptr noundef nonnull align 8 dereferenceable(72) %4) #15
  ret void
}